(dp1
S'output'
p2
S"<type 'exceptions.AttributeError'> 'NoneType' object has no attribute 'practice_name'"
p3
sS'layer'
p4
S'C:\\Users\\George\\Desktop\\coding\\web2py\\applications\\viewtrax\\views\\default/dashboard.html'
p5
sS'code'
p6
S'response.write(\'<!DOCTYPE html>\\r\\n<html lang="en">\\r\\n\\r\\n<head>\\r\\n\\r\\n    <meta charset="utf-8">\\r\\n    <meta name="viewport" content="width=device-width, initial-scale=1, shrink-to-fit=no">\\r\\n    <meta name="description" content="">\\r\\n    <meta name="author" content="">\\r\\n\\r\\n    <title>ViewTrax \', escape=False)\nresponse.write(request.function.capitalize())\nresponse.write(\'</title>\\r\\n\\r\\n    <!-- Bootstrap core CSS -->\\r\\n    <link rel="stylesheet" href="\', escape=False)\nresponse.write(URL(\'static\',\'css/bootstrap.css\'))\nresponse.write(\'"/>\\r\\n    <link rel="stylesheet" href="\', escape=False)\nresponse.write(URL(\'static\',\'css/web2py-bootstrap4.css\'))\nresponse.write(\'"/>\\r\\n    <link rel="shortcut icon" href="\', escape=False)\nresponse.write(URL(\'static\',\'images/favicon.ico\'))\nresponse.write(\'" type="image/x-icon">\\r\\n    <link rel="apple-touch-icon" href="\', escape=False)\nresponse.write(URL(\'static\',\'images/favicon.png\'))\nresponse.write(\'">\\r\\n    <link href="\', escape=False)\nresponse.write(URL(\'static\', \'css/custom.css\'))\nresponse.write(\'" rel="stylesheet">\\r\\n\\r\\n    <!-- Custom styles for this template -->\\r\\n    <link href="\', escape=False)\nresponse.write(URL(\'static\', \'css/font-awesome.min.css\'))\nresponse.write(\'" rel="stylesheet">\\r\\n    <link rel="stylesheet" href="\', escape=False)\nresponse.write(URL(\'static\', \'css/font-awesome-animation.min.css\'))\nresponse.write(\'">  <!--http://l-lin.github.io/font-awesome-animation/-->\\r\\n    <link href="\', escape=False)\nresponse.write(URL(\'static\', \'css/4-col-portfolio.css\'))\nresponse.write(\'" rel="stylesheet">\\r\\n    <!-- All JavaScript at the bottom, except for Modernizr which enables\\r\\n         HTML5 elements & feature detects -->\\r\\n    <script src="\', escape=False)\nresponse.write(URL(\'static\',\'js/modernizr-2.8.3.min.js\'))\nresponse.write(\'"></script>\\r\\n    <!-- Favicons -->\\r\\n    \', escape=False)\nresponse.write(\'<script type="text/javascript"><!--\\n    // These variables are used by the web2py_ajax_init function in web2py_ajax.js (which is loaded below).\\n    \', escape=False)\nresponse.write(ASSIGNJS(\nw2p_ajax_confirm_message = T(\'Are you sure you want to delete this object?\'),\nw2p_ajax_disable_with_message = T(\'Working...\'),\nw2p_ajax_date_format = T(\'%Y-%m-%d\'),\nw2p_ajax_datetime_format = T(\'%Y-%m-%d %H:%M:%S\'),\najax_error_500 = T.M(\'An error occured, please [[reload %s]] the page\') % URL(args=request.args, vars=request.get_vars)\n))\nresponse.write(\'\\n    //--></script>\\n\', escape=False)\nresponse.files.insert(0,URL(\'static\',\'js/jquery.js\'))\nresponse.files.insert(1,URL(\'static\',\'css/calendar.css\'))\nresponse.files.insert(2,URL(\'static\',\'js/calendar.js\'))\nresponse.files.insert(3,URL(\'static\',\'js/web2py.js\'))\nresponse.include_meta()\nresponse.include_files()\nresponse.write(\'\\n\', escape=False)\nresponse.write(\' <!-- this includes jquery.js, calendar.js/.css and web2py.js -->\\r\\n    \', escape=False)\nresponse.write(\'\\r\\n    \', escape=False)\nresponse.write(\'\\r\\n\\r\\n</head>\\r\\n\\r\\n<body>\\r\\n\', escape=False)\nif request.controller=="default" and request.function!="index":\n    response.write(\'\\r\\n<!-- Navigation -->\\r\\n<nav class="navbar navbar-expand-lg navbar-dark bg-dark fixed-top d-print-none">\\r\\n    <div class="container">\\r\\n\\t\\t\\t<div class="col-lg-6">\\r\\n\\t\\t\\t<a class="navbar-brand" href="#"><h2><img src="\', escape=False)\n    response.write(URL(\'static\', \'images/vuetrax_new2.png\'))\n    response.write(\'"\\r\\n                                                  style="height: 46px;"></h2></a>\\r\\n\\t\\t\\t<div class="btn-group">\\r\\n\\t\\t\\t\\t<button type="button" class="btn btn-danger dropdown-toggle" data-toggle="dropdown" aria-haspopup="true"\\r\\n\\t\\t\\t\\t\\t\\taria-expanded="false">\\r\\n\\t\\t\\t\\t\\tWelcome \', escape=False)\n    if auth.is_logged_in():\n        response.write(auth.user.last_name)\n        response.write(\', \', escape=False)\n        response.write(auth.user.first_name)\n    else:\n        response.write(\'Guest\', escape=False)\n        pass\n    response.write(\'\\r\\n\\t\\t\\t\\t</button>\\r\\n\\t\\t\\t\\t<div class="dropdown-menu">\\r\\n\\t\\t\\t\\t\\t<a class="dropdown-item" href="\', escape=False)\n    response.write(URL(\'default\', \'user\', args=[ \'profile\']))\n    response.write(\'">Profile</a>\\r\\n\\t\\t\\t\\t\\t<a class="dropdown-item" href="\', escape=False)\n    response.write(URL(\'default\', \'user\', args=[ \'change_password\']))\n    response.write(\'">Password</a>\\r\\n\\t\\t\\t\\t\\t<div class="dropdown-divider"></div>\\r\\n\\t\\t\\t\\t\\t<a class="dropdown-item" href="\', escape=False)\n    response.write(URL(\'default\', \'user\', args=[ \'logout\']))\n    response.write(\'">Log Out</a>\\r\\n\\t\\t\\t\\t</div>\\r\\n\\t\\t\\t</div>\\r\\n\\t\\t</div>\\r\\n\\t\\t<div class="col-lg-6">\\r\\n\\r\\n\\t\\t\\t<button class="navbar-toggler" type="button" data-toggle="collapse" data-target="#navbarResponsive"\\r\\n\\t\\t\\t\\t\\taria-controls="navbarResponsive" aria-expanded="false" aria-label="Toggle navigation">\\r\\n\\t\\t\\t\\t<span class="navbar-toggler-icon"></span>\\r\\n\\t\\t\\t</button>\\r\\n            <form action="\', escape=False)\n    response.write(URL())\n    response.write(\'">\\r\\n\\t\\t\\t<div class="collapse navbar-collapse" id="navbarResponsive">\\r\\n\\t\\t\\t\\t<ul class="navbar-nav ml-auto">\\r\\n\\t\\t\\t\\t\\t\\t<a class="btn btn-secondary \', escape=False)\n    if request.function==\'home\':\n        response.write(\'active\', escape=False)\n        pass\n    response.write(\'" href="\', escape=False)\n    response.write(URL(\'home\'))\n    response.write(\'">\\r\\n\\t\\t\\t\\t\\t\\t\\tHome\\r\\n\\t\\t\\t\\t\\t\\t</a>\\r\\n\\t\\t\\t\\t\\t\\t<a class="btn btn-secondary" \', escape=False)\n    if request.function==\'tracking\':\n        response.write(\'active\', escape=False)\n        pass\n    response.write(\'" href="\', escape=False)\n    response.write(URL(\'tracking\'))\n    response.write(\'">\\r\\n\\t\\t\\t\\t\\t\\t\\tTracking\\r\\n\\t\\t\\t\\t\\t\\t</a>\\r\\n\\t\\t\\t\\t\\t\\t<a class="btn btn-secondary \', escape=False)\n    if request.function==\'profiles\':\n        response.write(\'active\', escape=False)\n        pass\n    response.write(\'" href="\', escape=False)\n    response.write(URL(\'profiles\'))\n    response.write(\'">\\r\\n\\t\\t\\t\\t\\t\\t\\tProfiles\\r\\n\\t\\t\\t\\t\\t\\t</a>\\r\\n\\t\\t\\t\\t\\t\\t<a class="btn btn-secondary" \', escape=False)\n    if request.function==\'template_library\':\n        response.write(\'active\', escape=False)\n        pass\n    response.write(\'" href="\', escape=False)\n    response.write(URL(\'template_library\'))\n    response.write(\'">\\r\\n\\t\\t\\t\\t\\t\\t\\tTemplate Library\\r\\n\\t\\t\\t\\t\\t\\t</a>\\r\\n                    <input type="text" value="\', escape=False)\n    response.write(request.vars["search"] or \'\')\n    response.write(\'" name="search" class="search" placeholder=" Search \', escape=False)\n    if request.function=="home":\n        response.write(\'Practice\', escape=False)\n    elif request.function=="tracking":\n        response.write(\'Trainer\', escape=False)\n    elif request.function=="profiles":\n        response.write(\'User\', escape=False)\n    elif request.function=="template_library":\n        response.write(\'Template\', escape=False)\n        pass\n    response.write(\'...">\\r\\n\\t\\t\\t   </ul>\\r\\n\\t\\t\\t</div>\\r\\n            </form>\\r\\n\\t\\t</div>\\r\\n    </div>\\r\\n</nav>\\r\\n\\r\\n<h1>&nbsp;</h1>\\r\\n\\r\\n\', escape=False)\n    pass\nresponse.write(\'\\r\\n\', escape=False)\nif response.flash or session.flash:\n    response.write(\'\\r\\n<div id="alert_banner" class="alert alert-warning"\\r\\n     style=\\\'width:500px; position: fixed; right:50px; top:50px; z-index:9999;\\\'>\\r\\n\', escape=False)\n    response.write(response.flash or session.flash)\n    response.write(\'\\r\\n    <span id="close_flash_icon" class="pull-right"><i class="fa fa-window-close-o"></i></span>\\r\\n</div>\\r\\n\', escape=False)\n    pass\nresponse.write(\'\\r\\n\', escape=False)\nresponse.write(\'\\r\\n\\r\\n<!-- Page Content -->\\r\\n<meta name="viewport" content="width=device-width, initial-scale=1">\\r\\n<div class="container">\\r\\n    <h2> &nbsp; </h2>\\r\\n    <div class="card" class="dropdown dropright" style="text-align: center;">\\r\\n\\r\\n        <b>\\r\\n\\r\\n            <h4>\', escape=False)\nresponse.write(practice.practice_name)\nresponse.write(\'</h4>\\r\\n            <h6>\', escape=False)\nresponse.write(practice.address)\nresponse.write(\'</h6>\\r\\n            <h6>\', escape=False)\nresponse.write(practice.phone)\nresponse.write(\' | \', escape=False)\nresponse.write(practice.fax)\nresponse.write(\'</h6>\\r\\n\\r\\n\\r\\n        </b>\\r\\n    </div>\\r\\n    <div class="row">\\r\\n\\r\\n        <div class="card-body d-print-none">\\r\\n            <a href="\', escape=False)\nresponse.write(URL("home", vars=dict(practice=practice_id, section=session.section or "gap")))\nresponse.write(\'" class="card-link faa-parent animated-hover"><i class="fa fa-fw fa-arrow-left faa-tada"></i> Go Back</a>\\r\\n            <a href="\', escape=False)\nresponse.write(URL("dashboard_print.pdf", vars=dict(practice=practice_id, section=session.section or "gap")))\nresponse.write(\'" class="card-link faa-parent animated-hover"><i class="fa fa-fw fa-print faa-tada"></i> Print</a>\\r\\n            <span class="dropdown pull-right">\\r\\n\\t\\t\\t\\t  <button class="btn btn-info dropdown-toggle btn-sm"  type="button" id="dropdownMenu2" data-toggle="dropdown" aria-haspopup="true" aria-expanded="false">\\r\\n\\t\\t\\t\\t\\tLanguage\\r\\n\\t\\t\\t\\t  </button>\\r\\n\\t\\t\\t\\t  <div class="dropdown-menu" aria-labelledby="dropdownMenu2">\\r\\n\\t\\t\\t\\t\\t<button class="dropdown-item" type="button">English</button>\\r\\n\\t\\t\\t\\t\\t<button class="dropdown-item disabled" type="button">Spanish</button>\\r\\n\\t\\t\\t\\t\\t<button class="dropdown-item disabled" type="button">Bangla</button>\\r\\n\\t\\t\\t\\t  </div>\\r\\n            </span>\\r\\n        </div>\\r\\n    </div>\\r\\n</div>\\r\\n</div>\\r\\n\\r\\n<div class="container">\\r\\n\\r\\n    <div class="card" style="padding: 30px;">\\r\\n        <div class="col-lg-12" style="max-height: 795px;">\\r\\n            <div class="form-group" style="text-align: center;">\\r\\n                <ul class="nav nav-pills nav-fill">\\r\\n                    <li class="nav-item">\\r\\n                        <a class="nav-link \', escape=False)\nif is_gap:\n    response.write(\'active\', escape=False)\n    pass\nresponse.write(\'"\\r\\n                           href="\', escape=False)\nresponse.write(URL(vars=dict(practice=practice_id, section="gap")))\nresponse.write(\'">Gap Analysis Training\\r\\n\\r\\n                        </a>\\r\\n                    </li>\\r\\n                    <li class="nav-item" style="background-color: #F7F7F7;">\\r\\n                        <a class="nav-link \', escape=False)\nif is_front:\n    response.write(\'active\', escape=False)\n    pass\nresponse.write(\'"\\r\\n                           href="\', escape=False)\nresponse.write(URL(vars=dict(practice=practice_id, section="front")))\nresponse.write(\'">Non-Clinical Training\\r\\n\\r\\n                        </a>\\r\\n                    </li>\\r\\n                    <li class="nav-item" style="background-color: #F7F7F7;">\\r\\n                        <a class="nav-link \', escape=False)\nif is_provider:\n    response.write(\'active\', escape=False)\n    pass\nresponse.write(\'"\\r\\n                           href="\', escape=False)\nresponse.write(URL(vars=dict(practice=practice_id, section="provider")))\nresponse.write(\'">Clinician Training\\r\\n\\r\\n                        </a>\\r\\n                    </li>\\r\\n\\r\\n                </ul>\\r\\n\\r\\n\\r\\n            </div>\\r\\n            <hr>\\r\\n\\r\\n        </div>\\r\\n\\r\\n\\r\\n        <div class="card" id="questionCard"\\r\\n             style="background-color: #CCFAF8; text-align: center; margin-bottom: 15px; box-shadow: 5px 5px 5px grey;">\\r\\n            <h3> \', escape=False)\nresponse.write(section.capitalize())\nresponse.write(\' \', escape=False)\nresponse.write("Analysis" if is_gap else "")\nresponse.write(\' \', escape=False)\nresponse.write("Desk" if is_front else "")\nresponse.write(\' Training Progress: \', escape=False)\nresponse.write("%0.2f"%(progress["percent"]*100.0))\nresponse.write(\'% </h3>\\r\\n            <div style=" padding-left: 200px; padding-right: 200px;">\\r\\n                <div class="progress">\\r\\n                    <div class="progress-bar progress-bar-striped progress-bar-animated" role="progressbar"\\r\\n                         style="width: \', escape=False)\nresponse.write("%0.2f"%(progress["percent"]*100.0))\nresponse.write(\'%"></div>\\r\\n                </div>\\r\\n            </div>\\r\\n            <hr>\\r\\n        \', escape=False)\nprogress_zero = progress["percent"] == 0\nresponse.write(\'\\r\\n        \', escape=False)\nprogress_100 = progress["percent"] == 1\nresponse.write(\'\\r\\n        \', escape=False)\nif progress_zero:\n    btn_color = "danger"\n    btn_text = "Begin"\nelif progress_100:\n    btn_color = "success"\n    btn_text = "Edit"\nelse:\n    btn_color = "warning"\n    btn_text = "Continue"\n    pass\nresponse.write(\'\\r\\n            <div class="center-block">\\r\\n                <h5>\\r\\n                    <a href="\', escape=False)\nresponse.write(URL(\'questions\', vars=dict(practice=practice_id, section=section or "gap"), args=[first_question]))\nresponse.write(\'"\\r\\n                       class="btn btn-\', escape=False)\nresponse.write(btn_color)\nresponse.write(\'"><i class="fa faa-pulse animated fa-share-square-o" aria-hidden="true"></i> \', escape=False)\nresponse.write(btn_text)\nresponse.write(\'\\r\\n                        Question Reel </a></h5>\\r\\n\\r\\n            </div>\\r\\n        </div>\\r\\n\\r\\n    <div class="summary">\\r\\n        <ul><hr>\\r\\n        \', escape=False)\nfor identifier in question_order:\n    response.write(\'\\r\\n            \', escape=False)\n    answer = db((db.answer.identifier==identifier) & (db.answer.practice==practice_id)).select().last()\n    print answer\n    meta_data = json.loads(getattr(answer, \'meta_data\', \'{}\' ) or \'{}\' )\n    print meta_data\n    response.write(\'\\r\\n            \', escape=False)\n    if answer and meta_data:\n        response.write(\'\\r\\n                    <li>\\r\\n                    \', escape=False)\n        for each in range(meta_data["depth"]):\n            response.write(\'\\r\\n                        <ul><li>\\r\\n                    \', escape=False)\n            pass\n        response.write(\'\\r\\n                        <b>\', escape=False)\n        response.write(meta_data["inquire"])\n        response.write(\'</b>\\r\\n\\r\\n                            \', escape=False)\n        if meta_data["type"] == "yesNo":\n            response.write(\'\\r\\n                                <br>&mdash;<i>\', escape=False)\n            response.write("Yes" if answer.yes_no else "No")\n            response.write(\'</i>\\r\\n                            \', escape=False)\n        elif meta_data["type"] == "response":\n            response.write(\'\\r\\n                                <br>&mdash;<i>\', escape=False)\n            response.write(XML(answer.response))\n            response.write(\'</i>\\r\\n                            \', escape=False)\n        elif meta_data["type"] == "upload":\n            response.write(\'\\r\\n                                \', escape=False)\n            answers = db((db.answer.identifier==identifier) & (db.answer.practice==practice_id)).select()\n            response.write(\'\\r\\n                                \', escape=False)\n            for answer in answers:\n                response.write(\'\\r\\n                                    <br>&mdash;<i>\', escape=False)\n                response.write(answer.file_name)\n                response.write(\'</i>\\r\\n                                \', escape=False)\n                pass\n            response.write(\'\\r\\n                            \', escape=False)\n        elif meta_data["type"] == "download":\n            response.write(\'\\r\\n                                \', escape=False)\n            for asset in meta_data["assets"]:\n                response.write(\'\\r\\n                                    <br>&mdash;<i>\', escape=False)\n                response.write(asset["name"])\n                response.write(\'</i>\\r\\n                                \', escape=False)\n                pass\n            response.write(\'\\r\\n                            \', escape=False)\n            pass\n        response.write(\'\\r\\n\\r\\n                    \', escape=False)\n        for each in range(meta_data["depth"]):\n            response.write(\'\\r\\n                       </li></ul>\\r\\n                    \', escape=False)\n            pass\n        response.write(\'\\r\\n                    </li>\\r\\n\\r\\n            \', escape=False)\n        pass\n    response.write(\'\\r\\n            \', escape=False)\n    if answer:\n        response.write(\'\\r\\n            <hr>\', escape=False)\n        pass\n    response.write(\'\\r\\n        \', escape=False)\n    pass\nresponse.write(\'\\r\\n        </ul>\\r\\n    </div>\\r\\n\\r\\n    </div>\\r\\n</div>\\r\\n\\r\\n\\r\\n<h2> &nbsp; </h2>\\r\\n</div>\\r\\n<!-- /.container -->\\r\\n\\r\\n<!-- Bootstrap core JavaScript -->\\r\\n<script src="vendor/jquery/jquery.min.js"></script>\\r\\n<script src="vendor/bootstrap/js/bootstrap.bundle.min.js"></script>\\r\\n<!-- Modal -->\\r\\n<div class="modal fade" id="exampleModal" tabindex="-1" role="dialog" aria-labelledby="exampleModalLabel"\\r\\n     aria-hidden="true">\\r\\n    <div class="modal-dialog" role="document">\\r\\n        <div class="modal-content">\\r\\n            <div class="modal-header">\\r\\n                <h5 class="modal-title" id="exampleModalLabel">Modal title</h5>\\r\\n                <button type="button" class="close" data-dismiss="modal" aria-label="Close">\\r\\n                    <span aria-hidden="true">&times;</span>\\r\\n                </button>\\r\\n            </div>\\r\\n            <div class="modal-body">\\r\\n\\r\\n            </div>\\r\\n            <div class="modal-footer">\\r\\n                <button type="button" class="btn btn-primary">Save changes</button>\\r\\n            </div>\\r\\n        </div>\\r\\n    </div>\\r\\n</div>\\r\\n<div class="modal fade" id="commentModal" tabindex="-1" role="dialog" aria-labelledby="exampleModalLabel"\\r\\n     aria-hidden="true">\\r\\n    <div class="modal-dialog" role="document">\\r\\n        <div class="modal-content">\\r\\n            <div class="modal-header">\\r\\n                <h5 class="modal-title" id="exampleModalLabel">Comment Board</h5>\\r\\n                <button type="button" class="close" data-dismiss="modal" aria-label="Close">\\r\\n                    <span aria-hidden="true">&times;</span>\\r\\n                </button>\\r\\n            </div>\\r\\n            <div class="modal-body">\\r\\n                <div class="form-group">\\r\\n                    <textarea placeholder=" Comment here..." class="form-control" rows="5" id="comment"></textarea>\\r\\n\\r\\n                </div>\\r\\n            </div>\\r\\n            <div class="modal-footer">\\r\\n                <button type="button" class="btn btn-primary">Save changes</button>\\r\\n            </div>\\r\\n        </div>\\r\\n    </div>\\r\\n</div>\\r\\n\', escape=False)\nresponse.write(\'\\r\\n<br>\\r\\n<br>\\r\\n<br>\\r\\n<br>\\r\\n<br>\\r\\n</body>\\r\\n<!-- Footer -->\\r\\n\\r\\n<footer class="py-5 bg-dark fixed-bottom d-print-none">\\r\\n    <div class="container">\\r\\n        <div class="text-center text-white">&copy; 2018 George Dewey & Himel Das</div>\\r\\n    </div>\\r\\n    <!-- /.container -->\\r\\n</footer>\\r\\n<!-- Bootstrap core JavaScript -->\\r\\n<script src="\', escape=False)\nresponse.write(URL(\'static\', \'js/bootstrap.bundle.js\'))\nresponse.write(\'"></script>\\r\\n\', escape=False)\nif response.flash or session.flash:\n    response.write(\'\\r\\n<script>\\r\\n    $(document).ready(function () {\\r\\n        //$("#alert_banner").delay(10000).hide();\\r\\n        $("#close_flash_icon").on("click", function () {\\r\\n            $("#alert_banner").hide();\\r\\n        });\\r\\n    });\\r\\n</script>\\r\\n\', escape=False)\n    pass\nresponse.write(\'\\r\\n\\r\\n\', escape=False)\nresponse.write("\\r\\n<script>\\r\\n    $(function () {\\r\\n        $(\'[title]\').tooltip();\\r\\n    })\\r\\n</script>\\r\\n", escape=False)\nresponse.write(\'\\r\\n\\r\\n</html>\\r\\n\', escape=False)'
p7
sS'snapshot'
p8
(dp9
S'exception'
p10
(dp11
S'__getslice__'
p12
S"<method-wrapper '__getslice__' of exceptions.AttributeError object>"
p13
sS'__str__'
p14
S"<method-wrapper '__str__' of exceptions.AttributeError object>"
p15
sS'__reduce__'
p16
S'<built-in method __reduce__ of exceptions.AttributeError object>'
p17
sS'__dict__'
p18
S'{}'
p19
sS'message'
p20
S'"\'NoneType\' object has no attribute \'practice_name\'"'
p21
sS'__sizeof__'
p22
S'<built-in method __sizeof__ of exceptions.AttributeError object>'
p23
sS'__init__'
p24
S"<method-wrapper '__init__' of exceptions.AttributeError object>"
p25
sS'__setattr__'
p26
S"<method-wrapper '__setattr__' of exceptions.AttributeError object>"
p27
sS'__reduce_ex__'
p28
S'<built-in method __reduce_ex__ of exceptions.AttributeError object>'
p29
sS'__new__'
p30
S'<built-in method __new__ of type object>'
p31
sS'__format__'
p32
S'<built-in method __format__ of exceptions.AttributeError object>'
p33
sS'__class__'
p34
S"<type 'exceptions.AttributeError'>"
p35
sS'__doc__'
p36
S"'Attribute not found.'"
p37
sS'__getitem__'
p38
S"<method-wrapper '__getitem__' of exceptions.AttributeError object>"
p39
sS'__setstate__'
p40
S'<built-in method __setstate__ of exceptions.AttributeError object>'
p41
sS'__getattribute__'
p42
S"<method-wrapper '__getattribute__' of exceptions.AttributeError object>"
p43
sS'args'
p44
S'("\'NoneType\' object has no attribute \'practice_name\'",)'
p45
sS'__subclasshook__'
p46
S'<built-in method __subclasshook__ of type object>'
p47
sS'__unicode__'
p48
S'<built-in method __unicode__ of exceptions.AttributeError object>'
p49
sS'__delattr__'
p50
S"<method-wrapper '__delattr__' of exceptions.AttributeError object>"
p51
sS'__repr__'
p52
S"<method-wrapper '__repr__' of exceptions.AttributeError object>"
p53
sS'__hash__'
p54
S"<method-wrapper '__hash__' of exceptions.AttributeError object>"
p55
ssS'evalue'
p56
S"'NoneType' object has no attribute 'practice_name'"
p57
sS'request'
p58
cgluon.html
XML_unpickle
p59
(S's9I\x00\x00<div><table><tr><td style="font-weight:bold;vertical-align:top;">ajax</td><td style="vertical-align:top;">:</td><td><div>False</div></td></tr><tr><td style="font-weight:bold;vertical-align:top;">application</td><td style="vertical-align:top;">:</td><td><div>viewtrax</div></td></tr><tr><td style="font-weight:bold;vertical-align:top;">args</td><td style="vertical-align:top;">:</td><td><div><table></table></div></td></tr><tr><td style="font-weight:bold;vertical-align:top;">cid</td><td style="vertical-align:top;">:</td><td><div>None</div></td></tr><tr><td style="font-weight:bold;vertical-align:top;">client</td><td style="vertical-align:top;">:</td><td><div>192.168.1.21</div></td></tr><tr><td style="font-weight:bold;vertical-align:top;">controller</td><td style="vertical-align:top;">:</td><td><div>default</div></td></tr><tr><td style="font-weight:bold;vertical-align:top;">cookies</td><td style="vertical-align:top;">:</td><td><div><table></table></div></td></tr><tr><td style="font-weight:bold;vertical-align:top;">env</td><td style="vertical-align:top;">:</td><td><div><table><tr><td style="font-weight:bold;vertical-align:top;">HTTP_ACCEPT</td><td style="vertical-align:top;">:</td><td><div>text/html,application/xhtml+xml,application/xml;q=0.9,image/webp,image/apng,*/*;q=0.8</div></td></tr><tr><td style="font-weight:bold;vertical-align:top;">HTTP_ACCEPT_ENCODING</td><td style="vertical-align:top;">:</td><td><div>gzip, deflate</div></td></tr><tr><td style="font-weight:bold;vertical-align:top;">HTTP_ACCEPT_LANGUAGE</td><td style="vertical-align:top;">:</td><td><div>en-US,en;q=0.9</div></td></tr><tr><td style="font-weight:bold;vertical-align:top;">HTTP_CONNECTION</td><td style="vertical-align:top;">:</td><td><div>keep-alive</div></td></tr><tr><td style="font-weight:bold;vertical-align:top;">HTTP_HOST</td><td style="vertical-align:top;">:</td><td><div>192.168.1.53:9000</div></td></tr><tr><td style="font-weight:bold;vertical-align:top;">HTTP_UPGRADE_INSECURE_REQUESTS</td><td style="vertical-align:top;">:</td><td><div>1</div></td></tr><tr><td style="font-weight:bold;vertical-align:top;">HTTP_USER_AGENT</td><td style="vertical-align:top;">:</td><td><div>Mozilla/5.0 (Windows NT 10.0; Win64; x64) AppleWebKit/537.36 (KHTML, like Gecko) Chrome/65.0.3325.181 Safari/537.36</div></td></tr><tr><td style="font-weight:bold;vertical-align:top;">PATH_INFO</td><td style="vertical-align:top;">:</td><td><div>/viewtrax/default/dashboard</div></td></tr><tr><td style="font-weight:bold;vertical-align:top;">QUERY_STRING</td><td style="vertical-align:top;">:</td><td><div>practice=5&amp;section=front</div></td></tr><tr><td style="font-weight:bold;vertical-align:top;">REMOTE_ADDR</td><td style="vertical-align:top;">:</td><td><div>192.168.1.21</div></td></tr><tr><td style="font-weight:bold;vertical-align:top;">REMOTE_PORT</td><td style="vertical-align:top;">:</td><td><div>53011</div></td></tr><tr><td style="font-weight:bold;vertical-align:top;">REQUEST_METHOD</td><td style="vertical-align:top;">:</td><td><div>GET</div></td></tr><tr><td style="font-weight:bold;vertical-align:top;">SCRIPT_NAME</td><td style="vertical-align:top;">:</td><td><div></div></td></tr><tr><td style="font-weight:bold;vertical-align:top;">SERVER_NAME</td><td style="vertical-align:top;">:</td><td><div>DESKTOP-D4VOOE1</div></td></tr><tr><td style="font-weight:bold;vertical-align:top;">SERVER_PORT</td><td style="vertical-align:top;">:</td><td><div>9000</div></td></tr><tr><td style="font-weight:bold;vertical-align:top;">SERVER_PROTOCOL</td><td style="vertical-align:top;">:</td><td><div>HTTP/1.1</div></td></tr><tr><td style="font-weight:bold;vertical-align:top;">SERVER_SOFTWARE</td><td style="vertical-align:top;">:</td><td><div>Rocket 1.2.6</div></td></tr><tr><td style="font-weight:bold;vertical-align:top;">app_folders</td><td style="vertical-align:top;">:</td><td><div>set([&#x27;C:\\\\Users\\\\George\\\\Desktop\\\\coding\\\\web2py\\\\applications\\\\viewtrax\\\\&#x27;])</div></td></tr><tr><td style="font-weight:bold;vertical-align:top;">applications_parent</td><td style="vertical-align:top;">:</td><td><div>C:\\Users\\George\\Desktop\\coding\\web2py</div></td></tr><tr><td style="font-weight:bold;vertical-align:top;">cmd_args</td><td style="vertical-align:top;">:</td><td><div><table></table></div></td></tr><tr><td style="font-weight:bold;vertical-align:top;">cmd_options</td><td style="vertical-align:top;">:</td><td><div>&lt;Values at 0x5985440: {&#x27;verbose&#x27;: False, &#x27;ip&#x27;: &#x27;0.0.0.0&#x27;, &#x27;debuglevel&#x27;: 30, &#x27;with_scheduler&#x27;: False, &#x27;shutdown_timeout&#x27;: 5, &#x27;taskbar&#x27;: False, &#x27;with_coverage&#x27;: False, &#x27;pid_filename&#x27;: &#x27;httpserver.pid&#x27;, &#x27;maxthreads&#x27;: None, &#x27;softcron&#x27;: False, &#x27;server_name&#x27;: &#x27;DESKTOP-D4VOOE1&#x27;, &#x27;bpython&#x27;: False, &#x27;nogui&#x27;: False, &#x27;port&#x27;: 9000, &#x27;print_errors&#x27;: False, &#x27;extcron&#x27;: False, &#x27;runcron&#x27;: False, &#x27;run_system_tests&#x27;: False, &#x27;test&#x27;: None, &#x27;folder&#x27;: &#x27;C:\\\\Users\\\\George\\\\Desktop\\\\coding\\\\web2py&#x27;, &#x27;config&#x27;: &#x27;&#x27;, &#x27;minthreads&#x27;: None, &#x27;shell&#x27;: None, &#x27;run&#x27;: &#x27;&#x27;, &#x27;log_filename&#x27;: &#x27;httpserver.log&#x27;, &#x27;profiler_dir&#x27;: None, &#x27;args&#x27;: [&#x27;&#x27;], &#x27;socket_timeout&#x27;: 5, &#x27;ssl_ca_certificate&#x27;: None, &#x27;scheduler&#x27;: None, &#x27;interfaces&#x27;: None, &#x27;ssl_private_key&#x27;: &#x27;&#x27;, &#x27;gae&#x27;: None, &#x27;password&#x27;: &#x27;******&#x27;, &#x27;request_queue_size&#x27;: 5, &#x27;ssl_certificate&#x27;: &#x27;&#x27;, &#x27;cronjob&#x27;: False, &#x27;numthreads&#x27;: None, &#x27;quiet&#x27;: False, &#x27;import_models&#x27;: False, &#x27;timeout&#x27;: 10, &#x27;plain&#x27;: False, &#x27;nobanner&#x27;: False}&gt;</div></td></tr><tr><td style="font-weight:bold;vertical-align:top;">db_sessions</td><td style="vertical-align:top;">:</td><td><div>set([])</div></td></tr><tr><td style="font-weight:bold;vertical-align:top;">debugging</td><td style="vertical-align:top;">:</td><td><div>False</div></td></tr><tr><td style="font-weight:bold;vertical-align:top;">gluon_parent</td><td style="vertical-align:top;">:</td><td><div>C:\\Users\\George\\Desktop\\coding\\web2py</div></td></tr><tr><td style="font-weight:bold;vertical-align:top;">http_accept</td><td style="vertical-align:top;">:</td><td><div>text/html,application/xhtml+xml,application/xml;q=0.9,image/webp,image/apng,*/*;q=0.8</div></td></tr><tr><td style="font-weight:bold;vertical-align:top;">http_accept_encoding</td><td style="vertical-align:top;">:</td><td><div>gzip, deflate</div></td></tr><tr><td style="font-weight:bold;vertical-align:top;">http_accept_language</td><td style="vertical-align:top;">:</td><td><div>en-US,en;q=0.9</div></td></tr><tr><td style="font-weight:bold;vertical-align:top;">http_connection</td><td style="vertical-align:top;">:</td><td><div>keep-alive</div></td></tr><tr><td style="font-weight:bold;vertical-align:top;">http_host</td><td style="vertical-align:top;">:</td><td><div>192.168.1.53:9000</div></td></tr><tr><td style="font-weight:bold;vertical-align:top;">http_upgrade_insecure_requests</td><td style="vertical-align:top;">:</td><td><div>1</div></td></tr><tr><td style="font-weight:bold;vertical-align:top;">http_user_agent</td><td style="vertical-align:top;">:</td><td><div>Mozilla/5.0 (Windows NT 10.0; Win64; x64) AppleWebKit/537.36 (KHTML, like Gecko) Chrome/65.0.3325.181 Safari/537.36</div></td></tr><tr><td style="font-weight:bold;vertical-align:top;">is_jython</td><td style="vertical-align:top;">:</td><td><div>False</div></td></tr><tr><td style="font-weight:bold;vertical-align:top;">is_py2</td><td style="vertical-align:top;">:</td><td><div>True</div></td></tr><tr><td style="font-weight:bold;vertical-align:top;">is_pypy</td><td style="vertical-align:top;">:</td><td><div>False</div></td></tr><tr><td style="font-weight:bold;vertical-align:top;">is_source</td><td style="vertical-align:top;">:</td><td><div>True</div></td></tr><tr><td style="font-weight:bold;vertical-align:top;">path_info</td><td style="vertical-align:top;">:</td><td><div>/viewtrax/default/dashboard</div></td></tr><tr><td style="font-weight:bold;vertical-align:top;">query_string</td><td style="vertical-align:top;">:</td><td><div>practice=5&amp;section=front</div></td></tr><tr><td style="font-weight:bold;vertical-align:top;">remote_addr</td><td style="vertical-align:top;">:</td><td><div>192.168.1.21</div></td></tr><tr><td style="font-weight:bold;vertical-align:top;">remote_port</td><td style="vertical-align:top;">:</td><td><div>53011</div></td></tr><tr><td style="font-weight:bold;vertical-align:top;">request_method</td><td style="vertical-align:top;">:</td><td><div>GET</div></td></tr><tr><td style="font-weight:bold;vertical-align:top;">request_uri</td><td style="vertical-align:top;">:</td><td><div>/viewtrax/default/dashboard?practice=5&amp;section=front</div></td></tr><tr><td style="font-weight:bold;vertical-align:top;">script_name</td><td style="vertical-align:top;">:</td><td><div></div></td></tr><tr><td style="font-weight:bold;vertical-align:top;">server_name</td><td style="vertical-align:top;">:</td><td><div>DESKTOP-D4VOOE1</div></td></tr><tr><td style="font-weight:bold;vertical-align:top;">server_port</td><td style="vertical-align:top;">:</td><td><div>9000</div></td></tr><tr><td style="font-weight:bold;vertical-align:top;">server_protocol</td><td style="vertical-align:top;">:</td><td><div>HTTP/1.1</div></td></tr><tr><td style="font-weight:bold;vertical-align:top;">server_software</td><td style="vertical-align:top;">:</td><td><div>Rocket 1.2.6</div></td></tr><tr><td style="font-weight:bold;vertical-align:top;">web2py_path</td><td style="vertical-align:top;">:</td><td><div>C:\\Users\\George\\Desktop\\coding\\web2py</div></td></tr><tr><td style="font-weight:bold;vertical-align:top;">web2py_version</td><td style="vertical-align:top;">:</td><td><div>2.16.1-stable+timestamp.2017.11.14.05.54.25</div></td></tr><tr><td style="font-weight:bold;vertical-align:top;">wsgi.errors</td><td style="vertical-align:top;">:</td><td><div>&lt;open file &#x27;&lt;stderr&gt;&#x27;, mode &#x27;w&#x27; at 0x047AD0D0&gt;</div></td></tr><tr><td style="font-weight:bold;vertical-align:top;">wsgi.file_wrapper</td><td style="vertical-align:top;">:</td><td><div>&lt;class wsgiref.util.FileWrapper at 0x05951B58&gt;</div></td></tr><tr><td style="font-weight:bold;vertical-align:top;">wsgi.input</td><td style="vertical-align:top;">:</td><td><div>&lt;socket._fileobject object at 0x05981E70&gt;</div></td></tr><tr><td style="font-weight:bold;vertical-align:top;">wsgi.multiprocess</td><td style="vertical-align:top;">:</td><td><div>False</div></td></tr><tr><td style="font-weight:bold;vertical-align:top;">wsgi.multithread</td><td style="vertical-align:top;">:</td><td><div>True</div></td></tr><tr><td style="font-weight:bold;vertical-align:top;">wsgi.run_once</td><td style="vertical-align:top;">:</td><td><div>False</div></td></tr><tr><td style="font-weight:bold;vertical-align:top;">wsgi.url_scheme</td><td style="vertical-align:top;">:</td><td><div>http</div></td></tr><tr><td style="font-weight:bold;vertical-align:top;">wsgi.version</td><td style="vertical-align:top;">:</td><td><div><table><tr><td><div>1</div></td></tr><tr><td><div>0</div></td></tr></table></div></td></tr><tr><td style="font-weight:bold;vertical-align:top;">wsgi_errors</td><td style="vertical-align:top;">:</td><td><div>&lt;open file &#x27;&lt;stderr&gt;&#x27;, mode &#x27;w&#x27; at 0x047AD0D0&gt;</div></td></tr><tr><td style="font-weight:bold;vertical-align:top;">wsgi_file_wrapper</td><td style="vertical-align:top;">:</td><td><div>&lt;class wsgiref.util.FileWrapper at 0x05951B58&gt;</div></td></tr><tr><td style="font-weight:bold;vertical-align:top;">wsgi_input</td><td style="vertical-align:top;">:</td><td><div>&lt;socket._fileobject object at 0x05981E70&gt;</div></td></tr><tr><td style="font-weight:bold;vertical-align:top;">wsgi_multiprocess</td><td style="vertical-align:top;">:</td><td><div>False</div></td></tr><tr><td style="font-weight:bold;vertical-align:top;">wsgi_multithread</td><td style="vertical-align:top;">:</td><td><div>True</div></td></tr><tr><td style="font-weight:bold;vertical-align:top;">wsgi_run_once</td><td style="vertical-align:top;">:</td><td><div>False</div></td></tr><tr><td style="font-weight:bold;vertical-align:top;">wsgi_url_scheme</td><td style="vertical-align:top;">:</td><td><div>http</div></td></tr><tr><td style="font-weight:bold;vertical-align:top;">wsgi_version</td><td style="vertical-align:top;">:</td><td><div><table><tr><td><div>1</div></td></tr><tr><td><div>0</div></td></tr></table></div></td></tr></table></div></td></tr><tr><td style="font-weight:bold;vertical-align:top;">extension</td><td style="vertical-align:top;">:</td><td><div>html</div></td></tr><tr><td style="font-weight:bold;vertical-align:top;">folder</td><td style="vertical-align:top;">:</td><td><div>C:\\Users\\George\\Desktop\\coding\\web2py\\applications\\viewtrax\\</div></td></tr><tr><td style="font-weight:bold;vertical-align:top;">function</td><td style="vertical-align:top;">:</td><td><div>dashboard</div></td></tr><tr><td style="font-weight:bold;vertical-align:top;">global_settings</td><td style="vertical-align:top;">:</td><td><div><table><tr><td style="font-weight:bold;vertical-align:top;">app_folders</td><td style="vertical-align:top;">:</td><td><div>set([&#x27;C:\\\\Users\\\\George\\\\Desktop\\\\coding\\\\web2py\\\\applications\\\\viewtrax\\\\&#x27;])</div></td></tr><tr><td style="font-weight:bold;vertical-align:top;">applications_parent</td><td style="vertical-align:top;">:</td><td><div>C:\\Users\\George\\Desktop\\coding\\web2py</div></td></tr><tr><td style="font-weight:bold;vertical-align:top;">cmd_args</td><td style="vertical-align:top;">:</td><td><div><table></table></div></td></tr><tr><td style="font-weight:bold;vertical-align:top;">cmd_options</td><td style="vertical-align:top;">:</td><td><div>&lt;Values at 0x5985440: {&#x27;verbose&#x27;: False, &#x27;ip&#x27;: &#x27;0.0.0.0&#x27;, &#x27;debuglevel&#x27;: 30, &#x27;with_scheduler&#x27;: False, &#x27;shutdown_timeout&#x27;: 5, &#x27;taskbar&#x27;: False, &#x27;with_coverage&#x27;: False, &#x27;pid_filename&#x27;: &#x27;httpserver.pid&#x27;, &#x27;maxthreads&#x27;: None, &#x27;softcron&#x27;: False, &#x27;server_name&#x27;: &#x27;DESKTOP-D4VOOE1&#x27;, &#x27;bpython&#x27;: False, &#x27;nogui&#x27;: False, &#x27;port&#x27;: 9000, &#x27;print_errors&#x27;: False, &#x27;extcron&#x27;: False, &#x27;runcron&#x27;: False, &#x27;run_system_tests&#x27;: False, &#x27;test&#x27;: None, &#x27;folder&#x27;: &#x27;C:\\\\Users\\\\George\\\\Desktop\\\\coding\\\\web2py&#x27;, &#x27;config&#x27;: &#x27;&#x27;, &#x27;minthreads&#x27;: None, &#x27;shell&#x27;: None, &#x27;run&#x27;: &#x27;&#x27;, &#x27;log_filename&#x27;: &#x27;httpserver.log&#x27;, &#x27;profiler_dir&#x27;: None, &#x27;args&#x27;: [&#x27;&#x27;], &#x27;socket_timeout&#x27;: 5, &#x27;ssl_ca_certificate&#x27;: None, &#x27;scheduler&#x27;: None, &#x27;interfaces&#x27;: None, &#x27;ssl_private_key&#x27;: &#x27;&#x27;, &#x27;gae&#x27;: None, &#x27;password&#x27;: &#x27;******&#x27;, &#x27;request_queue_size&#x27;: 5, &#x27;ssl_certificate&#x27;: &#x27;&#x27;, &#x27;cronjob&#x27;: False, &#x27;numthreads&#x27;: None, &#x27;quiet&#x27;: False, &#x27;import_models&#x27;: False, &#x27;timeout&#x27;: 10, &#x27;plain&#x27;: False, &#x27;nobanner&#x27;: False}&gt;</div></td></tr><tr><td style="font-weight:bold;vertical-align:top;">db_sessions</td><td style="vertical-align:top;">:</td><td><div>set([])</div></td></tr><tr><td style="font-weight:bold;vertical-align:top;">debugging</td><td style="vertical-align:top;">:</td><td><div>False</div></td></tr><tr><td style="font-weight:bold;vertical-align:top;">gluon_parent</td><td style="vertical-align:top;">:</td><td><div>C:\\Users\\George\\Desktop\\coding\\web2py</div></td></tr><tr><td style="font-weight:bold;vertical-align:top;">is_jython</td><td style="vertical-align:top;">:</td><td><div>False</div></td></tr><tr><td style="font-weight:bold;vertical-align:top;">is_py2</td><td style="vertical-align:top;">:</td><td><div>True</div></td></tr><tr><td style="font-weight:bold;vertical-align:top;">is_pypy</td><td style="vertical-align:top;">:</td><td><div>False</div></td></tr><tr><td style="font-weight:bold;vertical-align:top;">is_source</td><td style="vertical-align:top;">:</td><td><div>True</div></td></tr><tr><td style="font-weight:bold;vertical-align:top;">local_hosts</td><td style="vertical-align:top;">:</td><td><div><table><tr><td><div>fe80::e82f:a7be:5a60:2ef%13</div></td></tr><tr><td><div>::ffff:127.0.0.1</div></td></tr><tr><td><div>::1</div></td></tr><tr><td><div>192.168.1.53</div></td></tr><tr><td><div>DESKTOP-D4VOOE1</div></td></tr><tr><td><div>127.0.0.1</div></td></tr></table></div></td></tr><tr><td style="font-weight:bold;vertical-align:top;">web2py_version</td><td style="vertical-align:top;">:</td><td><div>2.16.1-stable+timestamp.2017.11.14.05.54.25</div></td></tr></table></div></td></tr><tr><td style="font-weight:bold;vertical-align:top;">is_https</td><td style="vertical-align:top;">:</td><td><div>False</div></td></tr><tr><td style="font-weight:bold;vertical-align:top;">is_local</td><td style="vertical-align:top;">:</td><td><div>False</div></td></tr><tr><td style="font-weight:bold;vertical-align:top;">is_restful</td><td style="vertical-align:top;">:</td><td><div>False</div></td></tr><tr><td style="font-weight:bold;vertical-align:top;">is_scheduler</td><td style="vertical-align:top;">:</td><td><div>False</div></td></tr><tr><td style="font-weight:bold;vertical-align:top;">is_shell</td><td style="vertical-align:top;">:</td><td><div>False</div></td></tr><tr><td style="font-weight:bold;vertical-align:top;">now</td><td style="vertical-align:top;">:</td><td><div>datetime.datetime(2018, 4, 11, 11, 55, 58, 556000)</div></td></tr><tr><td style="font-weight:bold;vertical-align:top;">raw_args</td><td style="vertical-align:top;">:</td><td><div></div></td></tr><tr><td style="font-weight:bold;vertical-align:top;">raw_extension</td><td style="vertical-align:top;">:</td><td><div>None</div></td></tr><tr><td style="font-weight:bold;vertical-align:top;">url</td><td style="vertical-align:top;">:</td><td><div>/viewtrax/default/dashboard</div></td></tr><tr><td style="font-weight:bold;vertical-align:top;">utcnow</td><td style="vertical-align:top;">:</td><td><div>datetime.datetime(2018, 4, 11, 15, 55, 58, 556000)</div></td></tr><tr><td style="font-weight:bold;vertical-align:top;">wsgi</td><td style="vertical-align:top;">:</td><td><div>&lt;gluon.main.LazyWSGI object at 0x059AEAF0&gt;</div></td></tr></table></div>'
tRp60
sS'frames'
p61
(lp62
(dp63
S'file'
p64
S'C:\\Users\\George\\Desktop\\coding\\web2py\\gluon\\restricted.py'
p65
sS'dump'
p66
(dp67
S'environment'
p68
S"{'A': <class 'gluon.html.A'>, 'ANY_OF': <class 'gluon.validators.ANY_OF'>, 'ASSIGNJS': <function ASSIGNJS>, 'AppConfig': <function AppConfig>, 'Auth': <class 'gluon.tools.Auth'>, 'B': <class 'gluon.html.B'>, 'BEAUTIFY': <class 'gluon.html.BEAUTIFY'>, 'BODY': <class 'gluon.html.BODY'>, 'BR': <class 'gluon.html.BR'>, 'BUTTON': <class 'gluon.html.BUTTON'>, ...}"
p69
sS'ccode'
p70
S'<code object <module> at 05CF14A0, file "C:\\User...s\\viewtrax\\views\\default/dashboard.html", line 1>'
p71
ssS'lnum'
p72
I219
sS'lines'
p73
(dp74
I214
S'    if environment is None:'
p75
sI215
S'        environment = {}'
p76
sI216
S"    environment['__file__'] = layer"
p77
sI217
S"    environment['__name__'] = '__restricted__'"
p78
sI218
S'    try:'
p79
sI219
S'        exec(ccode, environment)'
p80
sI220
S'    except HTTP:'
p81
sI221
S'        raise'
p82
sI222
S'    except RestrictedError:'
p83
sI223
S'        # do not encapsulate (obfuscate) the original RestrictedError'
p84
ssS'call'
p85
S'(ccode=<code object <module> at 05CF14A0, file "C:\\User...s\\viewtrax\\views\\default/dashboard.html", line 1>, environment={\'A\': <class \'gluon.html.A\'>, \'ANY_OF\': <class \'gluon.validators.ANY_OF\'>, \'ASSIGNJS\': <function ASSIGNJS>, \'AppConfig\': <function AppConfig>, \'Auth\': <class \'gluon.tools.Auth\'>, \'B\': <class \'gluon.html.B\'>, \'BEAUTIFY\': <class \'gluon.html.BEAUTIFY\'>, \'BODY\': <class \'gluon.html.BODY\'>, \'BR\': <class \'gluon.html.BR\'>, \'BUTTON\': <class \'gluon.html.BUTTON\'>, ...}, layer=r\'C:\\Users\\George\\Desktop\\coding\\web2py\\applications\\viewtrax\\views\\default/dashboard.html\', scode=\'response.write(\\\'<!DOCTYPE html>\\\\r\\\\n<html lang="e...sponse.write(\\\'\\\\r\\\\n\\\\r\\\\n</html>\\\\r\\\\n\\\', escape=False)\')'
p86
sS'func'
p87
S'restricted'
p88
sa(dp89
g64
S'C:\\Users\\George\\Desktop\\coding\\web2py\\applications\\viewtrax\\views\\default\\dashboard.html'
p90
sg66
(dp91
S'identifier'
p92
S'undefined'
p93
sS'question_order'
p94
S"[u'km1', u'km8', u'km9', u'km10', u'km11a2', u'km11b', u'ac1a', u'ac1d', u'ac2a', u'km11a', u'ac4', u'ac73', u'ac81', u'ac84', u'ac85', u'cc1a', u'cc1b', u'cc1e', u'cc1aa', u'cc1bb', ...]"
p95
ssg72
I106
sg73
(dp96
I97
S'    pass'
p97
sI98
S"response.write('\\r\\n', escape=False)"
p98
sI99
S'if response.flash or session.flash:'
p99
sI100
S'    response.write(\'\\r\\n<div id="alert_banner" class="alert alert-warning"\\r\\n     style=\\\'width:500px; position: fixed; right:50px; top:50px; z-index:9999;\\\'>\\r\\n\', escape=False)'
p100
sI101
S'    response.write(response.flash or session.flash)'
p101
sI102
S'    response.write(\'\\r\\n    <span id="close_flash_icon" class="pull-right"><i class="fa fa-window-close-o"></i></span>\\r\\n</div>\\r\\n\', escape=False)'
p102
sI103
S'    pass'
p103
sI104
S"response.write('\\r\\n', escape=False)"
p104
sI105
S'response.write(\'\\r\\n\\r\\n<!-- Page Content -->\\r\\n<meta name="viewport" content="width=device-width, initial-scale=1">\\r\\n<div class="container">\\r\\n    <h2> &nbsp; </h2>\\r\\n    <div class="card" class="dropdown dropright" style="text-align: center;">\\r\\n\\r\\n        <b>\\r\\n\\r\\n            <h4>\', escape=False)'
p105
sI106
S'response.write(practice.practice_name)'
p106
sI107
S"response.write('</h4>\\r\\n            <h6>', escape=False)"
p107
sI108
S'response.write(practice.address)'
p108
sI109
S"response.write('</h6>\\r\\n            <h6>', escape=False)"
p109
sI110
S'response.write(practice.phone)'
p110
sI111
S"response.write(' | ', escape=False)"
p111
sI112
S'response.write(practice.fax)'
p112
sI113
S'response.write(\'</h6>\\r\\n\\r\\n\\r\\n        </b>\\r\\n    </div>\\r\\n    <div class="row">\\r\\n\\r\\n        <div class="card-body d-print-none">\\r\\n            <a href="\', escape=False)'
p113
sI114
S'response.write(URL("home", vars=dict(practice=practice_id, section=session.section or "gap")))'
p114
sI115
S'response.write(\'" class="card-link faa-parent animated-hover"><i class="fa fa-fw fa-arrow-left faa-tada"></i> Go Back</a>\\r\\n            <a href="\', escape=False)'
p115
sI116
S'response.write(URL("dashboard_print.pdf", vars=dict(practice=practice_id, section=session.section or "gap")))'
p116
ssg85
S'()'
p117
sg87
S'<module>'
p118
sasS'pyver'
p119
S'Python 2.7.14: C:\\Python27\\python.exe (prefix: C:\\Python27)'
p120
sS'session'
p121
g59
(S's\x1a\x00\x00\x00<div><table></table></div>'
tRp122
sS'etype'
p123
S"<type 'exceptions.AttributeError'>"
p124
sS'date'
p125
S'Wed Apr 11 11:56:08 2018'
p126
sS'response'
p127
g59
(S's&?\x00\x00<div><table><tr><td style="font-weight:bold;vertical-align:top;">body</td><td style="vertical-align:top;">:</td><td><div>&lt;cStringIO.StringO object at 0x059AE900&gt;</div></td></tr><tr><td style="font-weight:bold;vertical-align:top;">cookies</td><td style="vertical-align:top;">:</td><td><div><table><tr><td style="font-weight:bold;vertical-align:top;">session_id_viewtrax</td><td style="vertical-align:top;">:</td><td><div>192.168.1.21-4cf1ff7a-363c-4c9b-9081-132c5329a8bb<table><tr><td style="font-weight:bold;vertical-align:top;">comment</td><td style="vertical-align:top;">:</td><td><div></div></td></tr><tr><td style="font-weight:bold;vertical-align:top;">domain</td><td style="vertical-align:top;">:</td><td><div></div></td></tr><tr><td style="font-weight:bold;vertical-align:top;">expires</td><td style="vertical-align:top;">:</td><td><div></div></td></tr><tr><td style="font-weight:bold;vertical-align:top;">httponly</td><td style="vertical-align:top;">:</td><td><div></div></td></tr><tr><td style="font-weight:bold;vertical-align:top;">max-age</td><td style="vertical-align:top;">:</td><td><div></div></td></tr><tr><td style="font-weight:bold;vertical-align:top;">path</td><td style="vertical-align:top;">:</td><td><div>/</div></td></tr><tr><td style="font-weight:bold;vertical-align:top;">secure</td><td style="vertical-align:top;">:</td><td><div></div></td></tr><tr><td style="font-weight:bold;vertical-align:top;">version</td><td style="vertical-align:top;">:</td><td><div></div></td></tr></table></div></td></tr></table></div></td></tr><tr><td style="font-weight:bold;vertical-align:top;">delimiters</td><td style="vertical-align:top;">:</td><td><div><table><tr><td><div>{{</div></td></tr><tr><td><div>}}</div></td></tr></table></div></td></tr><tr><td style="font-weight:bold;vertical-align:top;">files</td><td style="vertical-align:top;">:</td><td><div><table><tr><td><div>/viewtrax/static/js/jquery.js</div></td></tr><tr><td><div>/viewtrax/static/css/calendar.css</div></td></tr><tr><td><div>/viewtrax/static/js/calendar.js</div></td></tr><tr><td><div>/viewtrax/static/js/web2py.js</div></td></tr></table></div></td></tr><tr><td style="font-weight:bold;vertical-align:top;">flash</td><td style="vertical-align:top;">:</td><td><div></div></td></tr><tr><td style="font-weight:bold;vertical-align:top;">form_label_separator</td><td style="vertical-align:top;">:</td><td><div></div></td></tr><tr><td style="font-weight:bold;vertical-align:top;">formstyle</td><td style="vertical-align:top;">:</td><td><div>bootstrap3_inline</div></td></tr><tr><td style="font-weight:bold;vertical-align:top;">generic_patterns</td><td style="vertical-align:top;">:</td><td><div><table></table></div></td></tr><tr><td style="font-weight:bold;vertical-align:top;">google_analytics_id</td><td style="vertical-align:top;">:</td><td><div>None</div></td></tr><tr><td style="font-weight:bold;vertical-align:top;">headers</td><td style="vertical-align:top;">:</td><td><div><table><tr><td style="font-weight:bold;vertical-align:top;">X-Powered-By</td><td style="vertical-align:top;">:</td><td><div>web2py</div></td></tr></table></div></td></tr><tr><td style="font-weight:bold;vertical-align:top;">logo</td><td style="vertical-align:top;">:</td><td><div><a class="navbar-brand" href="http://www.web2py.com/" id="web2py-logo"><b>web<span>2</span>py</b>&trade;&nbsp;</a></div></td></tr><tr><td style="font-weight:bold;vertical-align:top;">menu</td><td style="vertical-align:top;">:</td><td><div><table><tr><td><div><table><tr><td><div>Home</div></td></tr><tr><td><div>False</div></td></tr><tr><td><div>/viewtrax/default/index</div></td></tr><tr><td><div><table></table></div></td></tr></table></div></td></tr><tr><td><div><table><tr><td><div>My Sites</div></td></tr><tr><td><div>False</div></td></tr><tr><td><div>/admin/default/site</div></td></tr></table></div></td></tr><tr><td><div><table><tr><td><div>This App</div></td></tr><tr><td><div>False</div></td></tr><tr><td><div>#</div></td></tr><tr><td><div><table><tr><td><div><table><tr><td><div>Design</div></td></tr><tr><td><div>False</div></td></tr><tr><td><div>/admin/default/design/viewtrax</div></td></tr></table></div></td></tr><tr><td><div><li class="divider"></li></div></td></tr><tr><td><div><table><tr><td><div>Controller</div></td></tr><tr><td><div>False</div></td></tr><tr><td><div>/admin/default/edit/viewtrax/controllers/default.py</div></td></tr></table></div></td></tr><tr><td><div><table><tr><td><div>View</div></td></tr><tr><td><div>False</div></td></tr><tr><td><div>/admin/default/edit/viewtrax/views/default/dashboard.html</div></td></tr></table></div></td></tr><tr><td><div><table><tr><td><div>DB Model</div></td></tr><tr><td><div>False</div></td></tr><tr><td><div>/admin/default/edit/viewtrax/models/db.py</div></td></tr></table></div></td></tr><tr><td><div><table><tr><td><div>Menu Model</div></td></tr><tr><td><div>False</div></td></tr><tr><td><div>/admin/default/edit/viewtrax/models/menu.py</div></td></tr></table></div></td></tr><tr><td><div><table><tr><td><div>Config.ini</div></td></tr><tr><td><div>False</div></td></tr><tr><td><div>/admin/default/edit/viewtrax/private/appconfig.ini</div></td></tr></table></div></td></tr><tr><td><div><table><tr><td><div>Layout</div></td></tr><tr><td><div>False</div></td></tr><tr><td><div>/admin/default/edit/viewtrax/views/layout.html</div></td></tr></table></div></td></tr><tr><td><div><table><tr><td><div>Stylesheet</div></td></tr><tr><td><div>False</div></td></tr><tr><td><div>/admin/default/edit/viewtrax/static/css/web2py-bootstrap3.css</div></td></tr></table></div></td></tr><tr><td><div><table><tr><td><div>Database</div></td></tr><tr><td><div>False</div></td></tr><tr><td><div>/viewtrax/appadmin/index</div></td></tr></table></div></td></tr><tr><td><div><table><tr><td><div>Errors</div></td></tr><tr><td><div>False</div></td></tr><tr><td><div>/admin/default/errors/viewtrax</div></td></tr></table></div></td></tr><tr><td><div><table><tr><td><div>About</div></td></tr><tr><td><div>False</div></td></tr><tr><td><div>/admin/default/about/viewtrax</div></td></tr></table></div></td></tr></table></div></td></tr></table></div></td></tr><tr><td><div><table><tr><td><div>web2py.com</div></td></tr><tr><td><div>False</div></td></tr><tr><td><div>#</div></td></tr><tr><td><div><table><tr><td><div><table><tr><td><div>Download</div></td></tr><tr><td><div>False</div></td></tr><tr><td><div>http://www.web2py.com/examples/default/download</div></td></tr></table></div></td></tr><tr><td><div><table><tr><td><div>Support</div></td></tr><tr><td><div>False</div></td></tr><tr><td><div>http://www.web2py.com/examples/default/support</div></td></tr></table></div></td></tr><tr><td><div><table><tr><td><div>Demo</div></td></tr><tr><td><div>False</div></td></tr><tr><td><div>http://web2py.com/demo_admin</div></td></tr></table></div></td></tr><tr><td><div><table><tr><td><div>Quick Examples</div></td></tr><tr><td><div>False</div></td></tr><tr><td><div>http://web2py.com/examples/default/examples</div></td></tr></table></div></td></tr><tr><td><div><table><tr><td><div>FAQ</div></td></tr><tr><td><div>False</div></td></tr><tr><td><div>http://web2py.com/AlterEgo</div></td></tr></table></div></td></tr><tr><td><div><table><tr><td><div>Videos</div></td></tr><tr><td><div>False</div></td></tr><tr><td><div>http://www.web2py.com/examples/default/videos/</div></td></tr></table></div></td></tr><tr><td><div><table><tr><td><div>Free Applications</div></td></tr><tr><td><div>False</div></td></tr><tr><td><div>http://web2py.com/appliances</div></td></tr></table></div></td></tr><tr><td><div><table><tr><td><div>Plugins</div></td></tr><tr><td><div>False</div></td></tr><tr><td><div>http://web2py.com/plugins</div></td></tr></table></div></td></tr><tr><td><div><table><tr><td><div>Recipes</div></td></tr><tr><td><div>False</div></td></tr><tr><td><div>http://web2pyslices.com/</div></td></tr></table></div></td></tr></table></div></td></tr></table></div></td></tr><tr><td><div><table><tr><td><div>Documentation</div></td></tr><tr><td><div>False</div></td></tr><tr><td><div>#</div></td></tr><tr><td><div><table><tr><td><div><table><tr><td><div>Online book</div></td></tr><tr><td><div>False</div></td></tr><tr><td><div>http://www.web2py.com/book</div></td></tr></table></div></td></tr><tr><td><div><li class="divider"></li></div></td></tr><tr><td><div><table><tr><td><div>Preface</div></td></tr><tr><td><div>False</div></td></tr><tr><td><div>http://www.web2py.com/book/default/chapter/00</div></td></tr></table></div></td></tr><tr><td><div><table><tr><td><div>Introduction</div></td></tr><tr><td><div>False</div></td></tr><tr><td><div>http://www.web2py.com/book/default/chapter/01</div></td></tr></table></div></td></tr><tr><td><div><table><tr><td><div>Python</div></td></tr><tr><td><div>False</div></td></tr><tr><td><div>http://www.web2py.com/book/default/chapter/02</div></td></tr></table></div></td></tr><tr><td><div><table><tr><td><div>Overview</div></td></tr><tr><td><div>False</div></td></tr><tr><td><div>http://www.web2py.com/book/default/chapter/03</div></td></tr></table></div></td></tr><tr><td><div><table><tr><td><div>The Core</div></td></tr><tr><td><div>False</div></td></tr><tr><td><div>http://www.web2py.com/book/default/chapter/04</div></td></tr></table></div></td></tr><tr><td><div><table><tr><td><div>The Views</div></td></tr><tr><td><div>False</div></td></tr><tr><td><div>http://www.web2py.com/book/default/chapter/05</div></td></tr></table></div></td></tr><tr><td><div><table><tr><td><div>Database</div></td></tr><tr><td><div>False</div></td></tr><tr><td><div>http://www.web2py.com/book/default/chapter/06</div></td></tr></table></div></td></tr><tr><td><div><table><tr><td><div>Forms and Validators</div></td></tr><tr><td><div>False</div></td></tr><tr><td><div>http://www.web2py.com/book/default/chapter/07</div></td></tr></table></div></td></tr><tr><td><div><table><tr><td><div>Email and SMS</div></td></tr><tr><td><div>False</div></td></tr><tr><td><div>http://www.web2py.com/book/default/chapter/08</div></td></tr></table></div></td></tr><tr><td><div><table><tr><td><div>Access Control</div></td></tr><tr><td><div>False</div></td></tr><tr><td><div>http://www.web2py.com/book/default/chapter/09</div></td></tr></table></div></td></tr><tr><td><div><table><tr><td><div>Services</div></td></tr><tr><td><div>False</div></td></tr><tr><td><div>http://www.web2py.com/book/default/chapter/10</div></td></tr></table></div></td></tr><tr><td><div><table><tr><td><div>Ajax Recipes</div></td></tr><tr><td><div>False</div></td></tr><tr><td><div>http://www.web2py.com/book/default/chapter/11</div></td></tr></table></div></td></tr><tr><td><div><table><tr><td><div>Components and Plugins</div></td></tr><tr><td><div>False</div></td></tr><tr><td><div>http://www.web2py.com/book/default/chapter/12</div></td></tr></table></div></td></tr><tr><td><div><table><tr><td><div>Deployment Recipes</div></td></tr><tr><td><div>False</div></td></tr><tr><td><div>http://www.web2py.com/book/default/chapter/13</div></td></tr></table></div></td></tr><tr><td><div><table><tr><td><div>Other Recipes</div></td></tr><tr><td><div>False</div></td></tr><tr><td><div>http://www.web2py.com/book/default/chapter/14</div></td></tr></table></div></td></tr><tr><td><div><table><tr><td><div>Helping web2py</div></td></tr><tr><td><div>False</div></td></tr><tr><td><div>http://www.web2py.com/book/default/chapter/15</div></td></tr></table></div></td></tr><tr><td><div><table><tr><td><div>Buy web2py\'s book</div></td></tr><tr><td><div>False</div></td></tr><tr><td><div>http://stores.lulu.com/web2py</div></td></tr></table></div></td></tr></table></div></td></tr></table></div></td></tr><tr><td><div><table><tr><td><div>Community</div></td></tr><tr><td><div>False</div></td></tr><tr><td><div>None</div></td></tr><tr><td><div><table><tr><td><div><table><tr><td><div>Groups</div></td></tr><tr><td><div>False</div></td></tr><tr><td><div>http://www.web2py.com/examples/default/usergroups</div></td></tr></table></div></td></tr><tr><td><div><table><tr><td><div>Twitter</div></td></tr><tr><td><div>False</div></td></tr><tr><td><div>http://twitter.com/web2py</div></td></tr></table></div></td></tr><tr><td><div><table><tr><td><div>Live Chat</div></td></tr><tr><td><div>False</div></td></tr><tr><td><div>http://webchat.freenode.net/?channels=web2py</div></td></tr></table></div></td></tr></table></div></td></tr></table></div></td></tr></table></div></td></tr><tr><td style="font-weight:bold;vertical-align:top;">meta</td><td style="vertical-align:top;">:</td><td><div><table><tr><td style="font-weight:bold;vertical-align:top;">author</td><td style="vertical-align:top;">:</td><td><div>Your Name &lt;you@example.com&gt;</div></td></tr><tr><td style="font-weight:bold;vertical-align:top;">description</td><td style="vertical-align:top;">:</td><td><div>a cool new app</div></td></tr><tr><td style="font-weight:bold;vertical-align:top;">generator</td><td style="vertical-align:top;">:</td><td><div>Web2py Web Framework</div></td></tr><tr><td style="font-weight:bold;vertical-align:top;">keywords</td><td style="vertical-align:top;">:</td><td><div><table><tr><td><div>web2py</div></td></tr><tr><td><div>python</div></td></tr><tr><td><div>framework</div></td></tr></table></div></td></tr></table></div></td></tr><tr><td style="font-weight:bold;vertical-align:top;">models_to_run</td><td style="vertical-align:top;">:</td><td><div><table><tr><td><div>^\\w+\\.py$</div></td></tr><tr><td><div>^default/\\w+\\.py$</div></td></tr><tr><td><div>^default/dashboard/\\w+\\.py$</div></td></tr></table></div></td></tr><tr><td style="font-weight:bold;vertical-align:top;">postprocessing</td><td style="vertical-align:top;">:</td><td><div><table></table></div></td></tr><tr><td style="font-weight:bold;vertical-align:top;">session_client</td><td style="vertical-align:top;">:</td><td><div>192.168.1.21</div></td></tr><tr><td style="font-weight:bold;vertical-align:top;">session_cookie_compression_level</td><td style="vertical-align:top;">:</td><td><div>None</div></td></tr><tr><td style="font-weight:bold;vertical-align:top;">session_cookie_expires</td><td style="vertical-align:top;">:</td><td><div>None</div></td></tr><tr><td style="font-weight:bold;vertical-align:top;">session_data_name</td><td style="vertical-align:top;">:</td><td><div>session_data_viewtrax</div></td></tr><tr><td style="font-weight:bold;vertical-align:top;">session_file</td><td style="vertical-align:top;">:</td><td><div>None</div></td></tr><tr><td style="font-weight:bold;vertical-align:top;">session_filename</td><td style="vertical-align:top;">:</td><td><div>C:\\Users\\George\\Desktop\\coding\\web2py\\applications\\viewtrax\\sessions\\192.168.1.21-4cf1ff7a-363c-4c9b-9081-132c5329a8bb</div></td></tr><tr><td style="font-weight:bold;vertical-align:top;">session_hash</td><td style="vertical-align:top;">:</td><td><div>c0762cbf4baf7f9af97c051e7fcb8083</div></td></tr><tr><td style="font-weight:bold;vertical-align:top;">session_id</td><td style="vertical-align:top;">:</td><td><div>192.168.1.21-4cf1ff7a-363c-4c9b-9081-132c5329a8bb</div></td></tr><tr><td style="font-weight:bold;vertical-align:top;">session_id_name</td><td style="vertical-align:top;">:</td><td><div>session_id_viewtrax</div></td></tr><tr><td style="font-weight:bold;vertical-align:top;">session_masterapp</td><td style="vertical-align:top;">:</td><td><div>viewtrax</div></td></tr><tr><td style="font-weight:bold;vertical-align:top;">session_new</td><td style="vertical-align:top;">:</td><td><div>True</div></td></tr><tr><td style="font-weight:bold;vertical-align:top;">session_storage_type</td><td style="vertical-align:top;">:</td><td><div>file</div></td></tr><tr><td style="font-weight:bold;vertical-align:top;">status</td><td style="vertical-align:top;">:</td><td><div>200</div></td></tr><tr><td style="font-weight:bold;vertical-align:top;">subtitle</td><td style="vertical-align:top;">:</td><td><div></div></td></tr><tr><td style="font-weight:bold;vertical-align:top;">title</td><td style="vertical-align:top;">:</td><td><div>Viewtrax</div></td></tr><tr><td style="font-weight:bold;vertical-align:top;">view</td><td style="vertical-align:top;">:</td><td><div>default/dashboard.html</div></td></tr></table></div>'
tRp128
sS'locals'
p129
(dp130
S'Service'
p131
S"<class 'gluon.tools.Service'>"
p132
sS'PY2'
p133
S'True'
p134
sS'OBJECT'
p135
S"<class 'gluon.html.OBJECT'>"
p136
sS'SQLDB'
p137
S"<class 'pydal.base.DAL'>"
p138
sg121
S'<Storage {}>'
p139
sS'LINK'
p140
S"<class 'gluon.html.LINK'>"
p141
sS'Auth'
p142
S"<class 'gluon.tools.Auth'>"
p143
sS'BR'
p144
S"<class 'gluon.html.BR'>"
p145
sS'local_import'
p146
S'<function <lambda>>'
p147
sS'OPTGROUP'
p148
S"<class 'gluon.html.OPTGROUP'>"
p149
sS'iteritems'
p150
S'<function <lambda>>'
p151
sS'__package__'
p152
S'None'
p153
sS'PRE'
p154
S"<class 'gluon.html.PRE'>"
p155
sS'IS_INT_IN_RANGE'
p156
S"<class 'gluon.validators.IS_INT_IN_RANGE'>"
p157
sS'to_bytes'
p158
S'<function to_bytes>'
p159
sS'IS_LOWER'
p160
S"<class 'gluon.validators.IS_LOWER'>"
p161
sS'IS_STRONG'
p162
S"<class 'gluon.validators.IS_STRONG'>"
p163
sS'gravatar_url'
p164
S'None'
p165
sS'cache'
p166
S'<gluon.cache.Cache object>'
p167
sS'IS_IN_DB'
p168
S"<class 'gluon.validators.IS_IN_DB'>"
p169
sS'TAG'
p170
S'<gluon.html.__TAG__ object>'
p171
sS'collections'
p172
S"<module 'collections' from 'C:\\Python27\\lib\\collections.pyc'>"
p173
sS'SQLField'
p174
S"<class 'pydal.objects.Field'>"
p175
sS'mail'
p176
S'<gluon.tools.Mail object>'
p177
sS'BODY'
p178
S"<class 'gluon.html.BODY'>"
p179
sS'IS_DATE_IN_RANGE'
p180
S"<class 'gluon.validators.IS_DATE_IN_RANGE'>"
p181
sS'IFRAME'
p182
S"<class 'gluon.html.IFRAME'>"
p183
sS'URL'
p184
S'<function URL>'
p185
sS'__file__'
p186
S"r'C:\\Users\\George\\Desktop\\coding\\web2py\\applications\\viewtrax\\views\\default/dashboard.html'"
p187
sS'practice'
p188
S'None'
p189
sS'db'
p190
S'<DAL uri="sqlite://storage.sqlite">'
p191
sS'auth'
p192
S'<gluon.tools.Auth object>'
p193
sS'is_provider'
p194
S'False'
p195
sS'P'
S"<class 'gluon.html.P'>"
p196
sS'first_question'
p197
S"u'km1'"
p198
sS'_keywords'
p199
S'<function _keywords>'
p200
sS'TFOOT'
p201
S"<class 'gluon.html.TFOOT'>"
p202
sS'progress'
p203
S"{'answered_by_id': OrderedDict([(u'km1', False), (u'km8', False), (...14a', False), (u'qi1', False), (u'qi1a', False)]), 'percent': 0.0}"
p204
sS'XHTML'
p205
S"<class 'gluon.html.XHTML'>"
p206
sS'ON'
p207
g134
sS'OL'
p208
S"<class 'gluon.html.OL'>"
p209
sS'TEXTAREA'
p210
S"<class 'gluon.html.TEXTAREA'>"
p211
sS'MENU'
p212
S"<class 'gluon.html.MENU'>"
p213
sS'IS_IMAGE'
p214
S"<class 'gluon.validators.IS_IMAGE'>"
p215
sS'EM'
p216
S"<class 'gluon.html.EM'>"
p217
sS'CODE'
p218
S"<class 'gluon.html.CODE'>"
p219
sS'HTTP'
p220
S"<class 'gluon.http.HTTP'>"
p221
sS'HR'
p222
S"<class 'gluon.html.HR'>"
p223
sS'IS_DATETIME'
p224
S"<class 'gluon.validators.IS_DATETIME'>"
p225
sS'reduce'
p226
S'<built-in function reduce>'
p227
sS'STYLE'
p228
S"<class 'gluon.html.STYLE'>"
p229
sS'LABEL'
p230
S"<class 'gluon.html.LABEL'>"
p231
sS'is_front'
p232
g134
sS'CLEANUP'
p233
S"<class 'gluon.validators.CLEANUP'>"
p234
sS'plugins'
p235
S'<gluon.tools.PluginManager object>'
p236
sS'SELECT'
p237
S"<class 'gluon.html.SELECT'>"
p238
sS'CENTER'
p239
S"<class 'gluon.html.CENTER'>"
p240
sS'section'
p241
S"'front'"
p242
sS'urllib'
p243
S"<module 'urllib' from 'C:\\Python27\\lib\\urllib.pyc'>"
p244
sS'DEVELOPMENT_MENU'
p245
g134
sS'__builtins__'
p246
S"{'ArithmeticError': <type 'exceptions.ArithmeticError'>, 'AssertionError': <type 'exceptions.AssertionError'>, 'AttributeError': <type 'exceptions.AttributeError'>, 'BaseException': <type 'exceptions.BaseException'>, 'BufferError': <type 'exceptions.BufferError'>, 'BytesWarning': <type 'exceptions.BytesWarning'>, 'DeprecationWarning': <type 'exceptions.DeprecationWarning'>, 'EOFError': <type 'exceptions.EOFError'>, 'Ellipsis': Ellipsis, 'EnvironmentError': <type 'exceptions.EnvironmentError'>, ...}"
p247
sS'HTML'
p248
S"<class 'gluon.html.HTML'>"
p249
sS'SQLFORM'
p250
S"<class 'gluon.sqlhtml.SQLFORM'>"
p251
sS'LOAD'
p252
S'<function LOAD>'
p253
sS'redirect'
p254
S'<function redirect>'
p255
sS'FIELDSET'
p256
S"<class 'gluon.html.FIELDSET'>"
p257
sS'IS_EQUAL_TO'
p258
S"<class 'gluon.validators.IS_EQUAL_TO'>"
p259
sS'embed64'
p260
S'<function embed64>'
p261
sS'IS_LIST_OF'
p262
S"<class 'gluon.validators.IS_LIST_OF'>"
p263
sS'__name__'
p264
S"'__restricted__'"
p265
sS'EMBED'
p266
S"<class 'gluon.html.EMBED'>"
p267
sS'_'
S'<function _>'
p268
sS'myconf'
p269
S"{'forms': {'formstyle': 'bootstrap3_inline', 'se...': {'names': 'localhost:*, 127.0.0.1:*, *:*, *'}}"
p270
sS'H2'
p271
S"<class 'gluon.html.H2'>"
p272
sS'_split_and_lower'
p273
S'<function _split_and_lower>'
p274
sS'AppConfig'
p275
S'<function AppConfig>'
p276
sS'H1'
p277
S"<class 'gluon.html.H1'>"
p278
sS'H6'
p279
S"<class 'gluon.html.H6'>"
p280
sS'H4'
p281
S"<class 'gluon.html.H4'>"
p282
sS'H5'
p283
S"<class 'gluon.html.H5'>"
p284
sS'UL'
p285
S"<class 'gluon.html.UL'>"
p286
sS'IS_UPPER'
p287
S"<class 'gluon.validators.IS_UPPER'>"
p288
sS'xmlescape'
p289
S'<function xmlescape>'
p290
sS'IS_TIME'
p291
S"<class 'gluon.validators.IS_TIME'>"
p292
sS'navigation'
p293
g19
sS'OPTION'
p294
S"<class 'gluon.html.OPTION'>"
p295
sS'TITLE'
p296
S"<class 'gluon.html.TITLE'>"
p297
sS'CRYPT'
p298
S"<class 'gluon.validators.CRYPT'>"
p299
sS'IS_EMPTY_OR'
p300
S"<class 'gluon.validators.IS_EMPTY_OR'>"
p301
sS'MARKMIN'
p302
S"<class 'gluon.html.MARKMIN'>"
p303
sS'INPUT'
p304
S"<class 'gluon.html.INPUT'>"
p305
sS'STRONG'
p306
S"<class 'gluon.html.STRONG'>"
p307
sS'COL'
p308
S"<class 'gluon.html.COL'>"
p309
sS'service'
p310
S'<gluon.tools.Service object>'
p311
sS'SCRIPT'
p312
S"<class 'gluon.html.SCRIPT'>"
p313
sS'json'
p314
S"<module 'json' from 'C:\\Python27\\lib\\json\\__init__.pyc'>"
p315
sS'get_gravatar'
p316
S'<function get_gravatar>'
p317
sS'TABLE'
p318
S"<class 'gluon.html.TABLE'>"
p319
sS'IS_IPV4'
p320
S"<class 'gluon.validators.IS_IPV4'>"
p321
sS'IS_LENGTH'
p322
S"<class 'gluon.validators.IS_LENGTH'>"
p323
sS'IS_IPV6'
p324
S"<class 'gluon.validators.IS_IPV6'>"
p325
sS'XML'
p326
S"<class 'gluon.html.XML'>"
p327
sS'B'
S"<class 'gluon.html.B'>"
p328
sS'form'
p329
S'None'
p330
sS'SQLTABLE'
p331
S"<class 'gluon.sqlhtml.SQLTABLE'>"
p332
sS'IS_MATCH'
p333
S"<class 'gluon.validators.IS_MATCH'>"
p334
sS'practice_form_fields'
p335
S'[<pydal.objects.Field object>, <pydal.objects.Field object>, <pydal.objects.Field object>, <pydal.objects.Field object>, <pydal.objects.Field object>, <pydal.objects.Field object>, <pydal.objects.Field object>, <pydal.objects.Field object>]'
p336
sS'IS_ALPHANUMERIC'
p337
S"<class 'gluon.validators.IS_ALPHANUMERIC'>"
p338
sS'slides'
p339
S"OrderedDict([(u'km1', OrderedDict([(u'type', u'r...d_copy.docx'), (u'icon', u'file-word-o')])])]))])"
p340
sS'_recurse_find_by_key'
p341
S'<function _recurse_find_by_key>'
p342
sS'card_slides'
p343
S"OrderedDict([(u'1', OrderedDict([(u'tc1a1', [Non...ility_template.doc', u'http://viewtrax.us'])]))])"
p344
sS'hashlib'
p345
S"<module 'hashlib' from 'C:\\Python27\\lib\\hashlib.pyc'>"
p346
sS'SPAN'
p347
S"<class 'gluon.html.SPAN'>"
p348
sS'IS_JSON'
p349
S"<class 'gluon.validators.IS_JSON'>"
p350
sS'IS_IPADDRESS'
p351
S"<class 'gluon.validators.IS_IPADDRESS'>"
p352
sS'IS_SLUG'
p353
S"<class 'gluon.validators.IS_SLUG'>"
p354
sS'practice_id'
p355
S"'5'"
p356
sS'is_gap'
p357
g195
sS'META'
p358
S"<class 'gluon.html.META'>"
p359
sS'H3'
p360
S"<class 'gluon.html.H3'>"
p361
sS'BUTTON'
p362
S"<class 'gluon.html.BUTTON'>"
p363
sS'IS_DATE'
p364
S"<class 'gluon.validators.IS_DATE'>"
p365
sS'IS_EMAIL'
p366
S"<class 'gluon.validators.IS_EMAIL'>"
p367
sS'IS_NOT_EMPTY'
p368
S"<class 'gluon.validators.IS_NOT_EMPTY'>"
p369
sS'xrange'
p370
S"<type 'xrange'>"
p371
sS'BEAUTIFY'
p372
S"<class 'gluon.html.BEAUTIFY'>"
p373
sS'TBODY'
p374
S"<class 'gluon.html.TBODY'>"
p375
sS'CAT'
p376
S"<class 'gluon.html.CAT'>"
p377
sS'Field'
p378
S"<class 'pydal.objects.Field'>"
p379
sS'IS_LIST_OF_EMAILS'
p380
S"<class 'gluon.validators.IS_LIST_OF_EMAILS'>"
p381
sg58
S"<Storage {'_vars': <Storage {'section': 'front',...ktop\\\\coding\\\\web2py\\\\applications\\\\viewtrax\\\\'}>"
p382
sS'DIV'
p383
S"<class 'gluon.html.DIV'>"
p384
sS'LEGEND'
p385
S"<class 'gluon.html.LEGEND'>"
p386
sS'IMG'
p387
S"<class 'gluon.html.IMG'>"
p388
sS'to_native'
p389
S'<function to_native>'
p390
sS'COLGROUP'
p391
S"<class 'gluon.html.COLGROUP'>"
p392
sS'card_slides_json'
p393
S'\'\\n{"1": {"tc1a1": [null, "Who will be the clinici...ilability_template.doc", "http://viewtrax.us"]}}\\n\''
p394
sS'ASSIGNJS'
p395
S'<function ASSIGNJS>'
p396
sS'TR'
p397
S"<class 'gluon.html.TR'>"
p398
sS'LI'
p399
S"<class 'gluon.html.LI'>"
p400
sS'TH'
p401
S"<class 'gluon.html.TH'>"
p402
sS'question_order'
p403
S"[u'km1', u'km8', u'km9', u'km10', u'km11a2', u'km11b', u'ac1a', u'ac1d', u'ac2a', u'km11a', u'ac4', u'ac73', u'ac81', u'ac84', u'ac85', u'cc1a', u'cc1b', u'cc1e', u'cc1aa', u'cc1bb', ...]"
p404
sS'TD'
p405
S"<class 'gluon.html.TD'>"
p406
sS'PluginManager'
p407
S"<class 'gluon.tools.PluginManager'>"
p408
sS'IS_URL'
p409
S"<class 'gluon.validators.IS_URL'>"
p410
sS'A'
S"<class 'gluon.html.A'>"
p411
sS'HEAD'
p412
S"<class 'gluon.html.HEAD'>"
p413
sS'IS_DATETIME_IN_RANGE'
p414
S"<class 'gluon.validators.IS_DATETIME_IN_RANGE'>"
p415
sS'FORM'
p416
S"<class 'gluon.html.FORM'>"
p417
sS'I'
S"<class 'gluon.html.I'>"
p418
sS'IS_NOT_IN_DB'
p419
S"<class 'gluon.validators.IS_NOT_IN_DB'>"
p420
sg127
S"<Storage {'body': <cStringIO.StringO object at 0...t 0x05981EF0>, 'view': 'default/dashboard.html'}>"
p421
sS'THEAD'
p422
S"<class 'gluon.html.THEAD'>"
p423
sS'ANY_OF'
p424
S"<class 'gluon.validators.ANY_OF'>"
p425
sS'IS_NULL_OR'
p426
S"<class 'gluon.validators.IS_EMPTY_OR'>"
p427
sS'IS_FLOAT_IN_RANGE'
p428
S"<class 'gluon.validators.IS_FLOAT_IN_RANGE'>"
p429
sS'IS_EXPR'
p430
S"<class 'gluon.validators.IS_EXPR'>"
p431
sS'T'
S'<gluon.languages.translator object>'
p432
sS'DAL'
p433
S"<class 'pydal.base.DAL'>"
p434
sS'IS_IN_SET'
p435
S"<class 'gluon.validators.IS_IN_SET'>"
p436
sS'IS_UPLOAD_FILENAME'
p437
S"<class 'gluon.validators.IS_UPLOAD_FILENAME'>"
p438
sS'TT'
p439
S"<class 'gluon.html.TT'>"
p440
sS'IS_DECIMAL_IN_RANGE'
p441
S"<class 'gluon.validators.IS_DECIMAL_IN_RANGE'>"
p442
sssS'traceback'
p443
S'Traceback (most recent call last):\n  File "C:\\Users\\George\\Desktop\\coding\\web2py\\gluon\\restricted.py", line 219, in restricted\n    exec(ccode, environment)\n  File "C:\\Users\\George\\Desktop\\coding\\web2py\\applications\\viewtrax\\views\\default/dashboard.html", line 106, in <module>\n    {{for identifier in question_order:}}\nAttributeError: \'NoneType\' object has no attribute \'practice_name\'\n'
p444
s.